; ModuleID = 'source-C-CXX/42/1859.c'
source_filename = "source-C-CXX/42/1859.c"
target datalayout = "e-m:e-p270:32:32-p271:32:32-p272:64:64-i64:64-f80:128-n8:16:32:64-S128"
target triple = "x86_64-pc-linux-gnu"

@.str = private unnamed_addr constant [3 x i8] c"%d\00", align 1
@.str.1 = private unnamed_addr constant [7 x i8] c"%d %d\0A\00", align 1

; Function Attrs: nofree nounwind sspstrong uwtable
define dso_local i32 @main() local_unnamed_addr #0 {
  %1 = alloca i32, align 4
  %2 = bitcast i32* %1 to i8*
  call void @llvm.lifetime.start.p0i8(i64 4, i8* nonnull %2) #3
  %3 = call i32 (i8*, ...) @__isoc99_scanf(i8* getelementptr inbounds ([3 x i8], [3 x i8]* @.str, i64 0, i64 0), i32* nonnull %1)
  %4 = load i32, i32* %1, align 4, !tbaa !5
  %5 = icmp slt i32 %4, 6
  br i1 %5, label %33, label %6

6:                                                ; preds = %0, %28
  %7 = phi i32 [ %29, %28 ], [ %4, %0 ]
  %8 = phi i32 [ %30, %28 ], [ 3, %0 ]
  %9 = sub nsw i32 %7, %8
  %10 = sdiv i32 %9, 3
  %11 = icmp sgt i32 %9, 11
  br i1 %11, label %14, label %25

12:                                               ; preds = %21
  %13 = icmp slt i32 %24, %10
  br i1 %13, label %14, label %25, !llvm.loop !9

14:                                               ; preds = %6, %12
  %15 = phi i32 [ %24, %12 ], [ 3, %6 ]
  %16 = udiv i32 %8, %15
  %17 = mul nsw i32 %16, %15
  %18 = icmp ne i32 %8, %17
  %19 = icmp eq i32 %16, 1
  %20 = or i1 %19, %18
  br i1 %20, label %21, label %28

21:                                               ; preds = %14
  %22 = srem i32 %9, %15
  %23 = icmp eq i32 %22, 0
  %24 = add nuw nsw i32 %15, 2
  br i1 %23, label %28, label %12

25:                                               ; preds = %12, %6
  %26 = call i32 (i8*, ...) @printf(i8* nonnull dereferenceable(1) getelementptr inbounds ([7 x i8], [7 x i8]* @.str.1, i64 0, i64 0), i32 %8, i32 %9)
  %27 = load i32, i32* %1, align 4, !tbaa !5
  br label %28

28:                                               ; preds = %14, %21, %25
  %29 = phi i32 [ %27, %25 ], [ %7, %21 ], [ %7, %14 ]
  %30 = add nuw nsw i32 %8, 2
  %31 = sdiv i32 %29, 2
  %32 = icmp sgt i32 %30, %31
  br i1 %32, label %33, label %6, !llvm.loop !11

33:                                               ; preds = %28, %0
  call void @llvm.lifetime.end.p0i8(i64 4, i8* nonnull %2) #3
  ret i32 0
}

; Function Attrs: argmemonly mustprogress nofree nosync nounwind willreturn
declare void @llvm.lifetime.start.p0i8(i64 immarg, i8* nocapture) #1

; Function Attrs: nofree nounwind
declare noundef i32 @__isoc99_scanf(i8* nocapture noundef readonly, ...) local_unnamed_addr #2

; Function Attrs: nofree nounwind
declare noundef i32 @printf(i8* nocapture noundef readonly, ...) local_unnamed_addr #2

; Function Attrs: argmemonly mustprogress nofree nosync nounwind willreturn
declare void @llvm.lifetime.end.p0i8(i64 immarg, i8* nocapture) #1


!llvm.module.flags = !{!0, !1, !2, !3}
!llvm.ident = !{!4}

!0 = !{i32 1, !"wchar_size", i32 4}
!1 = !{i32 7, !"PIC Level", i32 2}
!2 = !{i32 7, !"PIE Level", i32 2}
!3 = !{i32 7, !"uwtable", i32 1}
!4 = !{!"clang version 13.0.0"}
!5 = !{!6, !6, i64 0}
!6 = !{!"int", !7, i64 0}
!7 = !{!"omnipotent char", !8, i64 0}
!8 = !{!"Simple C/C++ TBAA"}
!9 = distinct !{!9, !10}
!10 = !{!"llvm.loop.mustprogress"}
!11 = distinct !{!11, !10}
